target datalayout = "e-m:e-p270:32:32-p271:32:32-p272:64:64-i64:64-i128:128-f80:128-n8:16:32:64-S128"
target triple = "x86_64-pc-linux-gnu"

%"class.std::__cxx11::basic_string" = type { %"struct.std::__cxx11::basic_string<char>::_Alloc_hider", i64, %union.anon }
%"struct.std::__cxx11::basic_string<char>::_Alloc_hider" = type { ptr }
%union.anon = type { i64, [8 x i8] }
%"class.std::vector" = type { %"struct.std::_Vector_base" }
%"struct.std::_Vector_base" = type { %"struct.std::_Vector_base<std::__cxx11::basic_string<char>, std::allocator<std::__cxx11::basic_string<char>>>::_Vector_impl" }
%"struct.std::_Vector_base<std::__cxx11::basic_string<char>, std::allocator<std::__cxx11::basic_string<char>>>::_Vector_impl" = type { %"struct.std::_Vector_base<std::__cxx11::basic_string<char>, std::allocator<std::__cxx11::basic_string<char>>>::_Vector_impl_data" }
%"struct.std::_Vector_base<std::__cxx11::basic_string<char>, std::allocator<std::__cxx11::basic_string<char>>>::_Vector_impl_data" = type { ptr, ptr, ptr }
%class.cmInstallGenerator = type { %class.cmScriptGenerator.base, %"class.std::__cxx11::basic_string", %"class.std::__cxx11::basic_string", i32, i8, i8, %class.cmListFileBacktrace }
%class.cmScriptGenerator.base = type <{ ptr, %"class.std::__cxx11::basic_string", %"class.std::vector", %"class.std::__cxx11::basic_string", ptr, i8 }>
%class.cmListFileBacktrace = type { %class.cmConstStack }
%class.cmConstStack = type { %"class.std::shared_ptr" }
%"class.std::shared_ptr" = type { %"class.std::__shared_ptr" }
%"class.std::__shared_ptr" = type { ptr, %"class.std::__shared_count" }
%"class.std::__shared_count" = type { ptr }
%class.cmScriptGeneratorIndent = type { i32 }

@.str.14 = private unnamed_addr constant [3 x i8] c")\0A\00", align 1
@.str.41 = private unnamed_addr constant [2 x i8] c" \00", align 1
@.str.45 = private unnamed_addr constant [4 x i8] c"if(\00", align 1
@.str.46 = private unnamed_addr constant [10 x i8] c"endif()\0A\0A\00", align 1

; Function Attrs: mustprogress nounwind uwtable
define linkonce_odr dso_local void @_ZN23cmScriptGeneratorIndentC2Ei(ptr noundef nonnull align 4 dereferenceable(4) %0, i32 noundef %1) unnamed_addr #5 comdat align 2 {
  %3 = alloca ptr, align 8
  %4 = alloca i32, align 4
  store ptr %0, ptr %3, align 8
  store i32 %1, ptr %4, align 4
  %5 = load ptr, ptr %3, align 8
  %6 = getelementptr inbounds %class.cmScriptGeneratorIndent, ptr %5, i32 0, i32 0
  %7 = load i32, ptr %4, align 4
  store i32 %7, ptr %6, align 4
  ret void
}

; Function Attrs: mustprogress uwtable
define linkonce_odr dso_local void @_ZNK23cmScriptGeneratorIndent5WriteERSo(ptr noundef nonnull align 4 dereferenceable(4) %0, ptr noundef nonnull align 8 dereferenceable(8) %1) #4 comdat align 2 {
  %3 = alloca ptr, align 8
  %4 = alloca ptr, align 8
  %5 = alloca i32, align 4
  store ptr %0, ptr %3, align 8
  store ptr %1, ptr %4, align 8
  %6 = load ptr, ptr %3, align 8
  store i32 0, ptr %5, align 4
  br label %7

7:                                                ; preds = %15, %2
  %8 = load i32, ptr %5, align 4
  %9 = getelementptr inbounds %class.cmScriptGeneratorIndent, ptr %6, i32 0, i32 0
  %10 = load i32, ptr %9, align 4
  %11 = icmp slt i32 %8, %10
  br i1 %11, label %12, label %18

12:                                               ; preds = %7
  %13 = load ptr, ptr %4, align 8
  %14 = call noundef nonnull align 8 dereferenceable(8) ptr @_ZStlsISt11char_traitsIcEERSt13basic_ostreamIcT_ES5_PKc(ptr noundef nonnull align 8 dereferenceable(8) %13, ptr noundef @.str.41)
  br label %15

15:                                               ; preds = %12
  %16 = load i32, ptr %5, align 4
  %17 = add nsw i32 %16, 1
  store i32 %17, ptr %5, align 4
  br label %7, !llvm.loop !5

18:                                               ; preds = %7
  ret void
}

; Function Attrs: mustprogress uwtable
define linkonce_odr dso_local i32 @_ZNK23cmScriptGeneratorIndent4NextEi(ptr noundef nonnull align 4 dereferenceable(4) %0, i32 noundef %1) #4 comdat align 2 {
  %3 = alloca %class.cmScriptGeneratorIndent, align 4
  %4 = alloca ptr, align 8
  %5 = alloca i32, align 4
  store ptr %0, ptr %4, align 8
  store i32 %1, ptr %5, align 4
  %6 = load ptr, ptr %4, align 8
  %7 = getelementptr inbounds %class.cmScriptGeneratorIndent, ptr %6, i32 0, i32 0
  %8 = load i32, ptr %7, align 4
  %9 = load i32, ptr %5, align 4
  %10 = add nsw i32 %8, %9
  call void @_ZN23cmScriptGeneratorIndentC2Ei(ptr noundef nonnull align 4 dereferenceable(4) %3, i32 noundef %10)
  %11 = getelementptr inbounds %class.cmScriptGeneratorIndent, ptr %3, i32 0, i32 0
  %12 = load i32, ptr %11, align 4
  ret i32 %12
}

; Function Attrs: mustprogress uwtable
define linkonce_odr dso_local noundef nonnull align 8 dereferenceable(8) ptr @_ZlsRSo23cmScriptGeneratorIndent(ptr noundef nonnull align 8 dereferenceable(8) %0, i32 %1) #4 comdat {
  %3 = alloca %class.cmScriptGeneratorIndent, align 4
  %4 = alloca ptr, align 8
  %5 = getelementptr inbounds %class.cmScriptGeneratorIndent, ptr %3, i32 0, i32 0
  store i32 %1, ptr %5, align 4
  store ptr %0, ptr %4, align 8
  %6 = load ptr, ptr %4, align 8
  call void @_ZNK23cmScriptGeneratorIndent5WriteERSo(ptr noundef nonnull align 4 dereferenceable(4) %3, ptr noundef nonnull align 8 dereferenceable(8) %6)
  %7 = load ptr, ptr %4, align 8
  ret ptr %7
}

; Function Attrs: mustprogress nounwind uwtable
define linkonce_odr dso_local void @_ZN23cmScriptGeneratorIndentC2Ev(ptr noundef nonnull align 4 dereferenceable(4) %0) unnamed_addr #5 comdat align 2 {
  %2 = alloca ptr, align 8
  store ptr %0, ptr %2, align 8
  %3 = load ptr, ptr %2, align 8
  %4 = getelementptr inbounds %class.cmScriptGeneratorIndent, ptr %3, i32 0, i32 0
  store i32 0, ptr %4, align 4
  ret void
}

; Function Attrs: mustprogress uwtable
define dso_local void @_ZN18cmInstallGenerator14GenerateScriptERSo(ptr noundef nonnull align 8 dereferenceable(200) %0, ptr noundef nonnull align 8 dereferenceable(8) %1) unnamed_addr #4 align 2 personality ptr @__gxx_personality_v0 {
  %3 = alloca ptr, align 8
  %4 = alloca ptr, align 8
  %5 = alloca %class.cmScriptGeneratorIndent, align 4
  %6 = alloca %"class.std::__cxx11::basic_string", align 8
  %7 = alloca %class.cmScriptGeneratorIndent, align 4
  %8 = alloca ptr, align 8
  %9 = alloca i32, align 4
  %10 = alloca %class.cmScriptGeneratorIndent, align 4
  %11 = alloca %class.cmScriptGeneratorIndent, align 4
  store ptr %0, ptr %3, align 8
  store ptr %1, ptr %4, align 8
  %12 = load ptr, ptr %3, align 8
  call void @_ZN23cmScriptGeneratorIndentC2Ev(ptr noundef nonnull align 4 dereferenceable(4) %5) #3
  %13 = getelementptr inbounds %class.cmInstallGenerator, ptr %12, i32 0, i32 2
  %14 = getelementptr inbounds %class.cmInstallGenerator, ptr %12, i32 0, i32 4
  %15 = load i8, ptr %14, align 4
  %16 = trunc i8 %15 to i1
  %17 = getelementptr inbounds %class.cmInstallGenerator, ptr %12, i32 0, i32 5
  %18 = load i8, ptr %17, align 1
  %19 = trunc i8 %18 to i1
  call void @_ZN18cmInstallGenerator19CreateComponentTestERKNSt7__cxx1112basic_stringIcSt11char_traitsIcESaIcEEEbb(ptr dead_on_unwind writable sret(%"class.std::__cxx11::basic_string") align 8 %6, ptr noundef nonnull align 8 dereferenceable(200) %12, ptr noundef nonnull align 8 dereferenceable(32) %13, i1 noundef zeroext %16, i1 noundef zeroext %19)
  %20 = call noundef zeroext i1 @_ZNKSt7__cxx1112basic_stringIcSt11char_traitsIcESaIcEE5emptyEv(ptr noundef nonnull align 8 dereferenceable(32) %6) #3
  br i1 %20, label %37, label %21

21:                                               ; preds = %2
  %22 = load ptr, ptr %4, align 8
  call void @llvm.memcpy.p0.p0.i64(ptr align 4 %7, ptr align 4 %5, i64 4, i1 false)
  %23 = getelementptr inbounds %class.cmScriptGeneratorIndent, ptr %7, i32 0, i32 0
  %24 = load i32, ptr %23, align 4
  %25 = invoke noundef nonnull align 8 dereferenceable(8) ptr @_ZlsRSo23cmScriptGeneratorIndent(ptr noundef nonnull align 8 dereferenceable(8) %22, i32 %24)
          to label %26 unwind label %33

26:                                               ; preds = %21
  %27 = invoke noundef nonnull align 8 dereferenceable(8) ptr @_ZStlsISt11char_traitsIcEERSt13basic_ostreamIcT_ES5_PKc(ptr noundef nonnull align 8 dereferenceable(8) %25, ptr noundef @.str.45)
          to label %28 unwind label %33

28:                                               ; preds = %26
  %29 = invoke noundef nonnull align 8 dereferenceable(8) ptr @_ZStlsIcSt11char_traitsIcESaIcEERSt13basic_ostreamIT_T0_ES7_RKNSt7__cxx1112basic_stringIS4_S5_T1_EE(ptr noundef nonnull align 8 dereferenceable(8) %27, ptr noundef nonnull align 8 dereferenceable(32) %6)
          to label %30 unwind label %33

30:                                               ; preds = %28
  %31 = invoke noundef nonnull align 8 dereferenceable(8) ptr @_ZStlsISt11char_traitsIcEERSt13basic_ostreamIcT_ES5_PKc(ptr noundef nonnull align 8 dereferenceable(8) %29, ptr noundef @.str.14)
          to label %32 unwind label %33

32:                                               ; preds = %30
  br label %37

33:                                               ; preds = %60, %55, %47, %43, %30, %28, %26, %21
  %34 = landingpad { ptr, i32 }
          cleanup
  %35 = extractvalue { ptr, i32 } %34, 0
  store ptr %35, ptr %8, align 8
  %36 = extractvalue { ptr, i32 } %34, 1
  store i32 %36, ptr %9, align 4
  call void @_ZNSt7__cxx1112basic_stringIcSt11char_traitsIcESaIcEED1Ev(ptr noundef nonnull align 8 dereferenceable(32) %6) #3
  br label %64

37:                                               ; preds = %32, %2
  %38 = load ptr, ptr %4, align 8
  %39 = getelementptr inbounds %class.cmInstallGenerator, ptr %12, i32 0, i32 5
  %40 = load i8, ptr %39, align 1
  %41 = trunc i8 %40 to i1
  br i1 %41, label %42, label %43

42:                                               ; preds = %37
  call void @llvm.memcpy.p0.p0.i64(ptr align 4 %10, ptr align 4 %5, i64 4, i1 false)
  br label %47

43:                                               ; preds = %37
  %44 = invoke i32 @_ZNK23cmScriptGeneratorIndent4NextEi(ptr noundef nonnull align 4 dereferenceable(4) %5, i32 noundef 2)
          to label %45 unwind label %33

45:                                               ; preds = %43
  %46 = getelementptr inbounds %class.cmScriptGeneratorIndent, ptr %10, i32 0, i32 0
  store i32 %44, ptr %46, align 4
  br label %47

47:                                               ; preds = %45, %42
  %48 = getelementptr inbounds %class.cmScriptGeneratorIndent, ptr %10, i32 0, i32 0
  %49 = load i32, ptr %48, align 4
  %50 = load ptr, ptr %12, align 8
  %51 = getelementptr inbounds ptr, ptr %50, i64 3
  %52 = load ptr, ptr %51, align 8
  invoke void %52(ptr noundef nonnull align 8 dereferenceable(105) %12, ptr noundef nonnull align 8 dereferenceable(8) %38, i32 %49)
          to label %53 unwind label %33

53:                                               ; preds = %47
  %54 = call noundef zeroext i1 @_ZNKSt7__cxx1112basic_stringIcSt11char_traitsIcESaIcEE5emptyEv(ptr noundef nonnull align 8 dereferenceable(32) %6) #3
  br i1 %54, label %63, label %55

55:                                               ; preds = %53
  %56 = load ptr, ptr %4, align 8
  call void @llvm.memcpy.p0.p0.i64(ptr align 4 %11, ptr align 4 %5, i64 4, i1 false)
  %57 = getelementptr inbounds %class.cmScriptGeneratorIndent, ptr %11, i32 0, i32 0
  %58 = load i32, ptr %57, align 4
  %59 = invoke noundef nonnull align 8 dereferenceable(8) ptr @_ZlsRSo23cmScriptGeneratorIndent(ptr noundef nonnull align 8 dereferenceable(8) %56, i32 %58)
          to label %60 unwind label %33

60:                                               ; preds = %55
  %61 = invoke noundef nonnull align 8 dereferenceable(8) ptr @_ZStlsISt11char_traitsIcEERSt13basic_ostreamIcT_ES5_PKc(ptr noundef nonnull align 8 dereferenceable(8) %59, ptr noundef @.str.46)
          to label %62 unwind label %33

62:                                               ; preds = %60
  br label %63

63:                                               ; preds = %62, %53
  call void @_ZNSt7__cxx1112basic_stringIcSt11char_traitsIcESaIcEED1Ev(ptr noundef nonnull align 8 dereferenceable(32) %6) #3
  ret void

64:                                               ; preds = %33
  %65 = load ptr, ptr %8, align 8
  %66 = load i32, ptr %9, align 4
  %67 = insertvalue { ptr, i32 } poison, ptr %65, 0
  %68 = insertvalue { ptr, i32 } %67, i32 %66, 1
  resume { ptr, i32 } %68
}