; Function Attrs: mustprogress uwtable
define dso_local void @_ZN18cmInstallGenerator14GenerateScriptERSo(ptr noundef nonnull align 8 dereferenceable(200) %0, ptr noundef nonnull align 8 dereferenceable(8) %1) unnamed_addr #3 align 2 personality ptr @__gxx_personality_v0 {
  %3 = alloca %"class.std::__cxx11::basic_string", align 8
  %4 = getelementptr inbounds i8, ptr %0, i64 144
  %5 = getelementptr inbounds i8, ptr %0, i64 180
  %6 = getelementptr inbounds i8, ptr %0, i64 181
  %7 = load <2 x i8>, ptr %5, align 4
  %8 = trunc <2 x i8> %7 to <2 x i1>
  %9 = extractelement <2 x i1> %8, i64 0
  %10 = extractelement <2 x i1> %8, i64 1
  call void @_ZN18cmInstallGenerator19CreateComponentTestERKNSt7__cxx1112basic_stringIcSt11char_traitsIcESaIcEEEbb(ptr dead_on_unwind nonnull writable sret(%"class.std::__cxx11::basic_string") align 8 %3, ptr nonnull align 8 poison, ptr noundef nonnull align 8 dereferenceable(32) %4, i1 noundef zeroext %9, i1 noundef zeroext %10)
  %11 = call noundef zeroext i1 @_ZNKSt7__cxx1112basic_stringIcSt11char_traitsIcESaIcEE5emptyEv(ptr noundef nonnull align 8 dereferenceable(32) %3) #14
  br i1 %11, label %19, label %_ZlsRSo23cmScriptGeneratorIndent.exit

_ZlsRSo23cmScriptGeneratorIndent.exit:            ; preds = %2
  %12 = invoke noundef nonnull align 8 dereferenceable(8) ptr @_ZStlsISt11char_traitsIcEERSt13basic_ostreamIcT_ES5_PKc(ptr noundef nonnull align 8 dereferenceable(8) %1, ptr noundef nonnull @.str.45)
          to label %13 unwind label %17

13:                                               ; preds = %_ZlsRSo23cmScriptGeneratorIndent.exit
  %14 = invoke noundef nonnull align 8 dereferenceable(8) ptr @_ZStlsIcSt11char_traitsIcESaIcEERSt13basic_ostreamIT_T0_ES7_RKNSt7__cxx1112basic_stringIS4_S5_T1_EE(ptr noundef nonnull align 8 dereferenceable(8) %12, ptr noundef nonnull align 8 dereferenceable(32) %3)
          to label %15 unwind label %17

15:                                               ; preds = %13
  %16 = invoke noundef nonnull align 8 dereferenceable(8) ptr @_ZStlsISt11char_traitsIcEERSt13basic_ostreamIcT_ES5_PKc(ptr noundef nonnull align 8 dereferenceable(8) %14, ptr noundef nonnull @.str.14)
          to label %19 unwind label %17

17:                                               ; preds = %_ZlsRSo23cmScriptGeneratorIndent.exit11, %19, %15, %13, %_ZlsRSo23cmScriptGeneratorIndent.exit
  %18 = landingpad { ptr, i32 }
          cleanup
  call void @_ZNSt7__cxx1112basic_stringIcSt11char_traitsIcESaIcEED1Ev(ptr noundef nonnull align 8 dereferenceable(32) %3) #14
  resume { ptr, i32 } %18

19:                                               ; preds = %15, %2
  %20 = load i8, ptr %6, align 1
  %21 = shl i8 %20, 1
  %22 = and i8 %21, 2
  %23 = xor i8 %22, 2
  %spec.select = zext nneg i8 %23 to i32
  %24 = load ptr, ptr %0, align 8
  %25 = getelementptr inbounds i8, ptr %24, i64 24
  %26 = load ptr, ptr %25, align 8
  invoke void %26(ptr noundef nonnull align 8 dereferenceable(105) %0, ptr noundef nonnull align 8 dereferenceable(8) %1, i32 %spec.select)
          to label %27 unwind label %17

27:                                               ; preds = %19
  %28 = call noundef zeroext i1 @_ZNKSt7__cxx1112basic_stringIcSt11char_traitsIcESaIcEE5emptyEv(ptr noundef nonnull align 8 dereferenceable(32) %3) #14
  br i1 %28, label %30, label %_ZlsRSo23cmScriptGeneratorIndent.exit11

_ZlsRSo23cmScriptGeneratorIndent.exit11:          ; preds = %27
  %29 = invoke noundef nonnull align 8 dereferenceable(8) ptr @_ZStlsISt11char_traitsIcEERSt13basic_ostreamIcT_ES5_PKc(ptr noundef nonnull align 8 dereferenceable(8) %1, ptr noundef nonnull @.str.46)
          to label %30 unwind label %17

30:                                               ; preds = %_ZlsRSo23cmScriptGeneratorIndent.exit11, %27
  call void @_ZNSt7__cxx1112basic_stringIcSt11char_traitsIcESaIcEED1Ev(ptr noundef nonnull align 8 dereferenceable(32) %3) #14
  ret void
}